target datalayout = "e-m:e-p270:32:32-p271:32:32-p272:64:64-i64:64-i128:128-f80:128-n8:16:32:64-S128"
target triple = "x86_64-pc-linux-gnu"

%struct.expert_field = type { i32, i32 }

@ei_gsm_a_bssmap_extraneous_data = internal global %struct.expert_field zeroinitializer, align 4
@.str.137 = private unnamed_addr constant [1 x i8] zeroinitializer, align 1
@ei_gsm_a_bssmap_missing_mandatory_element = internal global %struct.expert_field zeroinitializer, align 4
@.str.139 = private unnamed_addr constant [71 x i8] c"Missing Mandatory element (0x%02x) %s%s, rest of dissection is suspect\00", align 1

; Function Attrs: null_pointer_is_valid sspstrong uwtable
define internal void @bssmap_uplink_req_ack(ptr noundef %0, ptr noundef %1, ptr noundef %2, i32 noundef %3, i32 noundef %4) #1 {
  %6 = alloca ptr, align 8
  %7 = alloca ptr, align 8
  %8 = alloca ptr, align 8
  %9 = alloca i32, align 4
  %10 = alloca i32, align 4
  %11 = alloca i32, align 4
  %12 = alloca i32, align 4
  %13 = alloca i32, align 4
  %14 = alloca i32, align 4
  store ptr %0, ptr %6, align 8
  store ptr %1, ptr %7, align 8
  store ptr %2, ptr %8, align 8
  store i32 %3, ptr %9, align 4
  store i32 %4, ptr %10, align 4
  call void @llvm.lifetime.start.p0(i64 4, ptr %11) #5
  call void @llvm.lifetime.start.p0(i64 4, ptr %12) #5
  call void @llvm.lifetime.start.p0(i64 4, ptr %13) #5
  %15 = load i32, ptr %9, align 4
  store i32 %15, ptr %11, align 4
  %16 = load i32, ptr %10, align 4
  store i32 %16, ptr %13, align 4
  %17 = load i32, ptr %13, align 4
  %18 = icmp sle i32 %17, 0
  br i1 %18, label %19, label %20

19:                                               ; preds = %5
  store i32 1, ptr %14, align 4
  br label %96

20:                                               ; preds = %5
  %21 = load ptr, ptr %6, align 8
  %22 = load ptr, ptr %7, align 8
  %23 = load ptr, ptr %8, align 8
  %24 = load i32, ptr %11, align 4
  %25 = call zeroext i16 @elem_tv(ptr noundef %21, ptr noundef %22, ptr noundef %23, i8 noundef zeroext 106, i32 noundef 0, i32 noundef 106, i32 noundef %24, ptr noundef null)
  %26 = zext i16 %25 to i32
  store i32 %26, ptr %12, align 4
  %27 = icmp ugt i32 %26, 0
  br i1 %27, label %28, label %35

28:                                               ; preds = %20
  %29 = load i32, ptr %12, align 4
  %30 = load i32, ptr %11, align 4
  %31 = add i32 %30, %29
  store i32 %31, ptr %11, align 4
  %32 = load i32, ptr %12, align 4
  %33 = load i32, ptr %13, align 4
  %34 = sub i32 %33, %32
  store i32 %34, ptr %13, align 4
  br label %35

35:                                               ; preds = %28, %20
  %36 = load i32, ptr %13, align 4
  %37 = icmp sle i32 %36, 0
  br i1 %37, label %38, label %39

38:                                               ; preds = %35
  store i32 1, ptr %14, align 4
  br label %96

39:                                               ; preds = %35
  %40 = load ptr, ptr %6, align 8
  %41 = load ptr, ptr %7, align 8
  %42 = load ptr, ptr %8, align 8
  %43 = load i32, ptr %11, align 4
  %44 = call zeroext i16 @elem_t(ptr noundef %40, ptr noundef %41, ptr noundef %42, i8 noundef zeroext 107, i32 noundef 0, i32 noundef 107, i32 noundef %43, ptr noundef null)
  %45 = zext i16 %44 to i32
  store i32 %45, ptr %12, align 4
  %46 = icmp ugt i32 %45, 0
  br i1 %46, label %47, label %54

47:                                               ; preds = %39
  %48 = load i32, ptr %12, align 4
  %49 = load i32, ptr %11, align 4
  %50 = add i32 %49, %48
  store i32 %50, ptr %11, align 4
  %51 = load i32, ptr %12, align 4
  %52 = load i32, ptr %13, align 4
  %53 = sub i32 %52, %51
  store i32 %53, ptr %13, align 4
  br label %54

54:                                               ; preds = %47, %39
  %55 = load i32, ptr %13, align 4
  %56 = icmp sgt i32 %55, 0
  br i1 %56, label %57, label %73

57:                                               ; preds = %54
  %58 = load ptr, ptr %6, align 8
  %59 = load ptr, ptr %7, align 8
  %60 = load ptr, ptr %8, align 8
  %61 = load i32, ptr %11, align 4
  %62 = load i32, ptr %13, align 4
  %63 = call zeroext i16 @elem_tlv(ptr noundef %58, ptr noundef %59, ptr noundef %60, i8 noundef zeroext 108, i32 noundef 0, i32 noundef 108, i32 noundef %61, i32 noundef %62, ptr noundef null)
  %64 = zext i16 %63 to i32
  store i32 %64, ptr %12, align 4
  %65 = icmp ugt i32 %64, 0
  br i1 %65, label %66, label %73

66:                                               ; preds = %57
  %67 = load i32, ptr %12, align 4
  %68 = load i32, ptr %11, align 4
  %69 = add i32 %68, %67
  store i32 %69, ptr %11, align 4
  %70 = load i32, ptr %12, align 4
  %71 = load i32, ptr %13, align 4
  %72 = sub i32 %71, %70
  store i32 %72, ptr %13, align 4
  br label %80

73:                                               ; preds = %57, %54
  %74 = load ptr, ptr %7, align 8
  %75 = load ptr, ptr %8, align 8
  %76 = load ptr, ptr %6, align 8
  %77 = load i32, ptr %11, align 4
  %78 = call ptr @get_gsm_a_msg_string(i32 noundef 0, i32 noundef 108)
  %79 = call ptr (ptr, ptr, ptr, ptr, i32, i32, ptr, ...) @proto_tree_add_expert_format(ptr noundef %74, ptr noundef %75, ptr noundef @ei_gsm_a_bssmap_missing_mandatory_element, ptr noundef %76, i32 noundef %77, i32 noundef 0, ptr noundef @.str.139, i32 noundef 108, ptr noundef %78, ptr noundef @.str.137)
  br label %80

80:                                               ; preds = %73, %66
  %81 = load i32, ptr %13, align 4
  %82 = icmp ugt i32 %81, 0
  br i1 %82, label %83, label %95

83:                                               ; preds = %80
  %84 = load ptr, ptr %7, align 8
  %85 = load ptr, ptr %8, align 8
  %86 = load ptr, ptr %6, align 8
  %87 = load i32, ptr %11, align 4
  %88 = load i32, ptr %13, align 4
  %89 = sub i32 %88, 0
  %90 = call ptr @proto_tree_add_expert(ptr noundef %84, ptr noundef %85, ptr noundef @ei_gsm_a_bssmap_extraneous_data, ptr noundef %86, i32 noundef %87, i32 noundef %89)
  %91 = load i32, ptr %13, align 4
  %92 = sub i32 %91, 0
  %93 = load i32, ptr %11, align 4
  %94 = add i32 %93, %92
  store i32 %94, ptr %11, align 4
  br label %95

95:                                               ; preds = %83, %80
  store i32 0, ptr %14, align 4
  br label %96

96:                                               ; preds = %95, %38, %19
  call void @llvm.lifetime.end.p0(i64 4, ptr %13) #5
  call void @llvm.lifetime.end.p0(i64 4, ptr %12) #5
  call void @llvm.lifetime.end.p0(i64 4, ptr %11) #5
  %97 = load i32, ptr %14, align 4
  switch i32 %97, label %99 [
    i32 0, label %98
    i32 1, label %98
  ]

98:                                               ; preds = %96, %96
  ret void

99:                                               ; preds = %96
  unreachable
}