; Function Attrs: null_pointer_is_valid sspstrong uwtable
define internal void @bssmap_uplink_req_ack(ptr noundef %0, ptr noundef %1, ptr noundef %2, i32 noundef %3, i32 noundef %4) #1 {
  %6 = icmp slt i32 %4, 1
  br i1 %6, label %31, label %7

7:                                                ; preds = %5
  %8 = tail call zeroext i16 @elem_tv(ptr noundef %0, ptr noundef %1, ptr noundef %2, i8 noundef zeroext 106, i32 noundef 0, i32 noundef 106, i32 noundef %3, ptr noundef null)
  %9 = zext i16 %8 to i32
  %10 = sub nsw i32 %4, %9
  %11 = icmp slt i32 %10, 1
  br i1 %11, label %31, label %12

12:                                               ; preds = %7
  %13 = add i32 %3, %9
  %14 = tail call zeroext i16 @elem_t(ptr noundef %0, ptr noundef %1, ptr noundef %2, i8 noundef zeroext 107, i32 noundef 0, i32 noundef 107, i32 noundef %13, ptr noundef null)
  %15 = zext i16 %14 to i32
  %16 = add i32 %13, %15
  %17 = sub nsw i32 %10, %15
  %18 = icmp sgt i32 %17, 0
  br i1 %18, label %19, label %25

19:                                               ; preds = %12
  %20 = tail call zeroext i16 @elem_tlv(ptr noundef %0, ptr noundef %1, ptr noundef %2, i8 noundef zeroext 108, i32 noundef 0, i32 noundef 108, i32 noundef %16, i32 noundef %17, ptr noundef null)
  %.not49 = icmp eq i16 %20, 0
  br i1 %.not49, label %25, label %21

21:                                               ; preds = %19
  %22 = zext i16 %20 to i32
  %23 = add i32 %16, %22
  %24 = sub nsw i32 %17, %22
  br label %28

25:                                               ; preds = %19, %12
  %26 = tail call ptr @get_gsm_a_msg_string(i32 noundef 0, i32 noundef 108)
  %27 = tail call ptr (ptr, ptr, ptr, ptr, i32, i32, ptr, ...) @proto_tree_add_expert_format(ptr noundef %1, ptr noundef %2, ptr noundef nonnull @ei_gsm_a_bssmap_missing_mandatory_element, ptr noundef %0, i32 noundef %16, i32 noundef 0, ptr noundef nonnull @.str.139, i32 noundef 108, ptr noundef %26, ptr noundef nonnull @.str.137)
  br label %28

28:                                               ; preds = %25, %21
  %.243 = phi i32 [ %23, %21 ], [ %16, %25 ]
  %.2 = phi i32 [ %24, %21 ], [ %17, %25 ]
  %.not50 = icmp eq i32 %.2, 0
  br i1 %.not50, label %31, label %29

29:                                               ; preds = %28
  %30 = tail call ptr @proto_tree_add_expert(ptr noundef %1, ptr noundef %2, ptr noundef nonnull @ei_gsm_a_bssmap_extraneous_data, ptr noundef %0, i32 noundef %.243, i32 noundef %.2)
  br label %31

31:                                               ; preds = %28, %29, %7, %5
  ret void
}